target datalayout = "e-m:e-p270:32:32-p271:32:32-p272:64:64-i64:64-i128:128-f80:128-n8:16:32:64-S128"
target triple = "x86_64-pc-linux-gnu"

%struct.BrotliBitReader = type { i64, i64, ptr, ptr, ptr }

; Function Attrs: alwaysinline nounwind uwtable
define internal i64 @BrotliBitReaderLoadBits(i64 noundef %0, i64 noundef %1, i64 noundef %2, i64 noundef %3) #2 {
  %5 = alloca i64, align 8
  %6 = alloca i64, align 8
  %7 = alloca i64, align 8
  %8 = alloca i64, align 8
  store i64 %0, ptr %5, align 8, !tbaa !12
  store i64 %1, ptr %6, align 8, !tbaa !12
  store i64 %2, ptr %7, align 8, !tbaa !12
  store i64 %3, ptr %8, align 8, !tbaa !12
  %9 = load i64, ptr %5, align 8, !tbaa !12
  %10 = load i64, ptr %6, align 8, !tbaa !12
  %11 = load i64, ptr %8, align 8, !tbaa !12
  %12 = shl i64 %10, %11
  %13 = or i64 %9, %12
  ret i64 %13
}

; Function Attrs: alwaysinline nounwind uwtable
define internal i32 @BrotliPullByte(ptr noundef %0) #2 {
  %2 = alloca i32, align 4
  %3 = alloca ptr, align 8
  store ptr %0, ptr %3, align 8, !tbaa !3
  %4 = load ptr, ptr %3, align 8, !tbaa !3
  %5 = getelementptr inbounds nuw %struct.BrotliBitReader, ptr %4, i32 0, i32 2
  %6 = load ptr, ptr %5, align 8, !tbaa !13
  %7 = load ptr, ptr %3, align 8, !tbaa !3
  %8 = getelementptr inbounds nuw %struct.BrotliBitReader, ptr %7, i32 0, i32 4
  %9 = load ptr, ptr %8, align 8, !tbaa !16
  %10 = icmp eq ptr %6, %9
  br i1 %10, label %11, label %12

11:                                               ; preds = %1
  store i32 0, ptr %2, align 4
  br label %35

12:                                               ; preds = %1
  %13 = load ptr, ptr %3, align 8, !tbaa !3
  %14 = getelementptr inbounds nuw %struct.BrotliBitReader, ptr %13, i32 0, i32 0
  %15 = load i64, ptr %14, align 8, !tbaa !7
  %16 = load ptr, ptr %3, align 8, !tbaa !3
  %17 = getelementptr inbounds nuw %struct.BrotliBitReader, ptr %16, i32 0, i32 2
  %18 = load ptr, ptr %17, align 8, !tbaa !13
  %19 = load i8, ptr %18, align 1, !tbaa !17
  %20 = zext i8 %19 to i64
  %21 = load ptr, ptr %3, align 8, !tbaa !3
  %22 = getelementptr inbounds nuw %struct.BrotliBitReader, ptr %21, i32 0, i32 1
  %23 = load i64, ptr %22, align 8, !tbaa !11
  %24 = call i64 @BrotliBitReaderLoadBits(i64 noundef %15, i64 noundef %20, i64 noundef 8, i64 noundef %23)
  %25 = load ptr, ptr %3, align 8, !tbaa !3
  %26 = getelementptr inbounds nuw %struct.BrotliBitReader, ptr %25, i32 0, i32 0
  store i64 %24, ptr %26, align 8, !tbaa !7
  %27 = load ptr, ptr %3, align 8, !tbaa !3
  %28 = getelementptr inbounds nuw %struct.BrotliBitReader, ptr %27, i32 0, i32 1
  %29 = load i64, ptr %28, align 8, !tbaa !11
  %30 = add i64 %29, 8
  store i64 %30, ptr %28, align 8, !tbaa !11
  %31 = load ptr, ptr %3, align 8, !tbaa !3
  %32 = getelementptr inbounds nuw %struct.BrotliBitReader, ptr %31, i32 0, i32 2
  %33 = load ptr, ptr %32, align 8, !tbaa !13
  %34 = getelementptr inbounds nuw i8, ptr %33, i32 1
  store ptr %34, ptr %32, align 8, !tbaa !13
  store i32 1, ptr %2, align 4
  br label %35

35:                                               ; preds = %12, %11
  %36 = load i32, ptr %2, align 4
  ret i32 %36
}

; Function Attrs: alwaysinline nounwind uwtable
define internal i64 @BrotliGetAvailableBits(ptr noundef %0) #2 {
  %2 = alloca ptr, align 8
  store ptr %0, ptr %2, align 8, !tbaa !3
  %3 = load ptr, ptr %2, align 8, !tbaa !3
  %4 = getelementptr inbounds nuw %struct.BrotliBitReader, ptr %3, i32 0, i32 1
  %5 = load i64, ptr %4, align 8, !tbaa !11
  ret i64 %5
}

; Function Attrs: nounwind uwtable
define hidden i32 @BrotliWarmupBitReader(ptr noundef %0) #0 {
  %2 = alloca i32, align 4
  %3 = alloca ptr, align 8
  %4 = alloca i64, align 8
  %5 = alloca i32, align 4
  store ptr %0, ptr %3, align 8, !tbaa !3
  call void @llvm.lifetime.start.p0(i64 8, ptr %4) #5
  store i64 3, ptr %4, align 8, !tbaa !12
  store i64 0, ptr %4, align 8, !tbaa !12
  %6 = load ptr, ptr %3, align 8, !tbaa !3
  %7 = call i64 @BrotliGetAvailableBits(ptr noundef %6)
  %8 = icmp eq i64 %7, 0
  br i1 %8, label %9, label %17

9:                                                ; preds = %1
  %10 = load ptr, ptr %3, align 8, !tbaa !3
  %11 = getelementptr inbounds nuw %struct.BrotliBitReader, ptr %10, i32 0, i32 0
  store i64 0, ptr %11, align 8, !tbaa !7
  %12 = load ptr, ptr %3, align 8, !tbaa !3
  %13 = call i32 @BrotliPullByte(ptr noundef %12)
  %14 = icmp ne i32 %13, 0
  br i1 %14, label %16, label %15

15:                                               ; preds = %9
  store i32 0, ptr %2, align 4
  store i32 1, ptr %5, align 4
  br label %33

16:                                               ; preds = %9
  br label %17

17:                                               ; preds = %16, %1
  br label %18

18:                                               ; preds = %31, %17
  %19 = load ptr, ptr %3, align 8, !tbaa !3
  %20 = getelementptr inbounds nuw %struct.BrotliBitReader, ptr %19, i32 0, i32 2
  %21 = load ptr, ptr %20, align 8, !tbaa !13
  %22 = ptrtoint ptr %21 to i64
  %23 = load i64, ptr %4, align 8, !tbaa !12
  %24 = and i64 %22, %23
  %25 = icmp ne i64 %24, 0
  br i1 %25, label %26, label %32

26:                                               ; preds = %18
  %27 = load ptr, ptr %3, align 8, !tbaa !3
  %28 = call i32 @BrotliPullByte(ptr noundef %27)
  %29 = icmp ne i32 %28, 0
  br i1 %29, label %31, label %30

30:                                               ; preds = %26
  store i32 1, ptr %2, align 4
  store i32 1, ptr %5, align 4
  br label %33

31:                                               ; preds = %26
  br label %18, !llvm.loop !14

32:                                               ; preds = %18
  store i32 1, ptr %2, align 4
  store i32 1, ptr %5, align 4
  br label %33

33:                                               ; preds = %32, %30, %15
  call void @llvm.lifetime.end.p0(i64 8, ptr %4) #5
  %34 = load i32, ptr %2, align 4
  ret i32 %34
}