; Function Attrs: mustprogress nofree norecurse nosync nounwind willreturn memory(read, argmem: readwrite, inaccessiblemem: none) uwtable
define hidden range(i32 0, 2) i32 @BrotliWarmupBitReader(ptr noundef captures(none) %0) local_unnamed_addr #1 {
  %2 = getelementptr inbounds nuw i8, ptr %0, i64 8
  %3 = load i64, ptr %2, align 8, !tbaa !3
  %4 = icmp eq i64 %3, 0
  br i1 %4, label %5, label %BrotliPullByte.exit.thread

5:                                                ; preds = %1
  store i64 0, ptr %0, align 8, !tbaa !10
  %6 = getelementptr inbounds nuw i8, ptr %0, i64 16
  %7 = load ptr, ptr %6, align 8, !tbaa !11
  %8 = getelementptr inbounds nuw i8, ptr %0, i64 32
  %9 = load ptr, ptr %8, align 8, !tbaa !12
  %10 = icmp eq ptr %7, %9
  br i1 %10, label %BrotliPullByte.exit.thread, label %BrotliPullByte.exit

BrotliPullByte.exit:                              ; preds = %5
  %11 = load i8, ptr %7, align 1, !tbaa !13
  %12 = zext i8 %11 to i64
  store i64 %12, ptr %0, align 8, !tbaa !10
  store i64 8, ptr %2, align 8, !tbaa !3
  %13 = getelementptr inbounds nuw i8, ptr %7, i64 1
  store ptr %13, ptr %6, align 8, !tbaa !11
  br label %BrotliPullByte.exit.thread

BrotliPullByte.exit.thread:                       ; preds = %5, %1, %BrotliPullByte.exit
  %.0 = phi i32 [ 1, %BrotliPullByte.exit ], [ 1, %1 ], [ 0, %5 ]
  ret i32 %.0
}